target datalayout = "e-m:e-p270:32:32-p271:32:32-p272:64:64-i64:64-i128:128-f80:128-n8:16:32:64-S128"
target triple = "x86_64-pc-linux-gnu"

%struct.ml_dsa_key_st = type { ptr, ptr, ptr, ptr, [32 x i8], [64 x i8], [32 x i8], ptr, ptr, ptr, i32, i32, %struct.vector_st, %struct.vector_st, %struct.vector_st, %struct.vector_st }
%struct.vector_st = type { ptr, i64 }
%struct.ml_dsa_params_st = type { ptr, i32, i32, i32, i32, i32, i64, i64, i32, i32, i32, i32, i64, i64, i64 }
%struct.poly_st = type { [256 x i32] }

@.str.3 = private unnamed_addr constant [41 x i8] c"../openssl/crypto/ml_dsa/ml_dsa_vector.h\00", align 1

; Function Attrs: inlinehint nounwind uwtable
define internal i32 @poly_equal(ptr noundef %0, ptr noundef %1) #3 {
  %3 = alloca ptr, align 8
  %4 = alloca ptr, align 8
  store ptr %0, ptr %3, align 8, !tbaa !41
  store ptr %1, ptr %4, align 8, !tbaa !41
  %5 = load ptr, ptr %3, align 8, !tbaa !41
  %6 = load ptr, ptr %4, align 8, !tbaa !41
  %7 = call i32 @CRYPTO_memcmp(ptr noundef %5, ptr noundef %6, i64 noundef 1024)
  %8 = icmp eq i32 %7, 0
  %9 = zext i1 %8 to i32
  ret i32 %9
}

; Function Attrs: inlinehint nounwind uwtable
define internal void @vector_free(ptr noundef %0) #3 {
  %2 = alloca ptr, align 8
  store ptr %0, ptr %2, align 8, !tbaa !35
  %3 = load ptr, ptr %2, align 8, !tbaa !35
  %4 = getelementptr inbounds nuw %struct.vector_st, ptr %3, i32 0, i32 0
  %5 = load ptr, ptr %4, align 8, !tbaa !37
  call void @CRYPTO_free(ptr noundef %5, ptr noundef @.str.3, i32 noundef 46)
  %6 = load ptr, ptr %2, align 8, !tbaa !35
  %7 = getelementptr inbounds nuw %struct.vector_st, ptr %6, i32 0, i32 0
  store ptr null, ptr %7, align 8, !tbaa !37
  %8 = load ptr, ptr %2, align 8, !tbaa !35
  %9 = getelementptr inbounds nuw %struct.vector_st, ptr %8, i32 0, i32 1
  store i64 0, ptr %9, align 8, !tbaa !38
  ret void
}

; Function Attrs: inlinehint nounwind uwtable
define internal i32 @shake_xof(ptr noundef %0, ptr noundef %1, ptr noundef %2, i64 noundef %3, ptr noundef %4, i64 noundef %5) #3 {
  %7 = alloca ptr, align 8
  %8 = alloca ptr, align 8
  %9 = alloca ptr, align 8
  %10 = alloca i64, align 8
  %11 = alloca ptr, align 8
  %12 = alloca i64, align 8
  store ptr %0, ptr %7, align 8, !tbaa !44
  store ptr %1, ptr %8, align 8, !tbaa !48
  store ptr %2, ptr %9, align 8, !tbaa !22
  store i64 %3, ptr %10, align 8, !tbaa !23
  store ptr %4, ptr %11, align 8, !tbaa !22
  store i64 %5, ptr %12, align 8, !tbaa !23
  %13 = load ptr, ptr %7, align 8, !tbaa !44
  %14 = load ptr, ptr %8, align 8, !tbaa !48
  %15 = call i32 @EVP_DigestInit_ex2(ptr noundef %13, ptr noundef %14, ptr noundef null)
  %16 = icmp eq i32 %15, 1
  br i1 %16, label %17, label %29

17:                                               ; preds = %6
  %18 = load ptr, ptr %7, align 8, !tbaa !44
  %19 = load ptr, ptr %9, align 8, !tbaa !22
  %20 = load i64, ptr %10, align 8, !tbaa !23
  %21 = call i32 @EVP_DigestUpdate(ptr noundef %18, ptr noundef %19, i64 noundef %20)
  %22 = icmp eq i32 %21, 1
  br i1 %22, label %23, label %29

23:                                               ; preds = %17
  %24 = load ptr, ptr %7, align 8, !tbaa !44
  %25 = load ptr, ptr %11, align 8, !tbaa !22
  %26 = load i64, ptr %12, align 8, !tbaa !23
  %27 = call i32 @EVP_DigestSqueeze(ptr noundef %24, ptr noundef %25, i64 noundef %26)
  %28 = icmp eq i32 %27, 1
  br label %29

29:                                               ; preds = %23, %17, %6
  %30 = phi i1 [ false, %17 ], [ false, %6 ], [ %28, %23 ]
  %31 = zext i1 %30 to i32
  ret i32 %31
}

; Function Attrs: inlinehint nounwind uwtable
define internal i32 @vector_equal(ptr noundef %0, ptr noundef %1) #3 {
  %3 = alloca i32, align 4
  %4 = alloca ptr, align 8
  %5 = alloca ptr, align 8
  %6 = alloca i64, align 8
  %7 = alloca i32, align 4
  store ptr %0, ptr %4, align 8, !tbaa !35
  store ptr %1, ptr %5, align 8, !tbaa !35
  call void @llvm.lifetime.start.p0(i64 8, ptr %6) #7
  %8 = load ptr, ptr %4, align 8, !tbaa !35
  %9 = getelementptr inbounds nuw %struct.vector_st, ptr %8, i32 0, i32 1
  %10 = load i64, ptr %9, align 8, !tbaa !38
  %11 = load ptr, ptr %5, align 8, !tbaa !35
  %12 = getelementptr inbounds nuw %struct.vector_st, ptr %11, i32 0, i32 1
  %13 = load i64, ptr %12, align 8, !tbaa !38
  %14 = icmp ne i64 %10, %13
  br i1 %14, label %15, label %16

15:                                               ; preds = %2
  store i32 0, ptr %3, align 4
  store i32 1, ptr %7, align 4
  br label %42

16:                                               ; preds = %2
  store i64 0, ptr %6, align 8, !tbaa !23
  br label %17

17:                                               ; preds = %38, %16
  %18 = load i64, ptr %6, align 8, !tbaa !23
  %19 = load ptr, ptr %4, align 8, !tbaa !35
  %20 = getelementptr inbounds nuw %struct.vector_st, ptr %19, i32 0, i32 1
  %21 = load i64, ptr %20, align 8, !tbaa !38
  %22 = icmp ult i64 %18, %21
  br i1 %22, label %23, label %41

23:                                               ; preds = %17
  %24 = load ptr, ptr %4, align 8, !tbaa !35
  %25 = getelementptr inbounds nuw %struct.vector_st, ptr %24, i32 0, i32 0
  %26 = load ptr, ptr %25, align 8, !tbaa !37
  %27 = load i64, ptr %6, align 8, !tbaa !23
  %28 = getelementptr inbounds nuw %struct.poly_st, ptr %26, i64 %27
  %29 = load ptr, ptr %5, align 8, !tbaa !35
  %30 = getelementptr inbounds nuw %struct.vector_st, ptr %29, i32 0, i32 0
  %31 = load ptr, ptr %30, align 8, !tbaa !37
  %32 = load i64, ptr %6, align 8, !tbaa !23
  %33 = getelementptr inbounds nuw %struct.poly_st, ptr %31, i64 %32
  %34 = call i32 @poly_equal(ptr noundef %28, ptr noundef %33)
  %35 = icmp ne i32 %34, 0
  br i1 %35, label %37, label %36

36:                                               ; preds = %23
  store i32 0, ptr %3, align 4
  store i32 1, ptr %7, align 4
  br label %42

37:                                               ; preds = %23
  br label %38

38:                                               ; preds = %37
  %39 = load i64, ptr %6, align 8, !tbaa !23
  %40 = add i64 %39, 1
  store i64 %40, ptr %6, align 8, !tbaa !23
  br label %17, !llvm.loop !46

41:                                               ; preds = %17
  store i32 1, ptr %3, align 4
  store i32 1, ptr %7, align 4
  br label %42

42:                                               ; preds = %41, %36, %15
  call void @llvm.lifetime.end.p0(i64 8, ptr %6) #7
  %43 = load i32, ptr %3, align 4
  ret i32 %43
}

; Function Attrs: nounwind uwtable
define i32 @ossl_ml_dsa_key_pub_alloc(ptr noundef %0) #0 {
  %2 = alloca i32, align 4
  %3 = alloca ptr, align 8
  store ptr %0, ptr %3, align 8, !tbaa !3
  %4 = load ptr, ptr %3, align 8, !tbaa !3
  %5 = getelementptr inbounds nuw %struct.ml_dsa_key_st, ptr %4, i32 0, i32 12
  %6 = getelementptr inbounds nuw %struct.vector_st, ptr %5, i32 0, i32 0
  %7 = load ptr, ptr %6, align 8, !tbaa !33
  %8 = icmp ne ptr %7, null
  br i1 %8, label %9, label %10

9:                                                ; preds = %1
  store i32 0, ptr %2, align 4
  br label %19

10:                                               ; preds = %1
  %11 = load ptr, ptr %3, align 8, !tbaa !3
  %12 = getelementptr inbounds nuw %struct.ml_dsa_key_st, ptr %11, i32 0, i32 12
  %13 = load ptr, ptr %3, align 8, !tbaa !3
  %14 = getelementptr inbounds nuw %struct.ml_dsa_key_st, ptr %13, i32 0, i32 1
  %15 = load ptr, ptr %14, align 8, !tbaa !8
  %16 = getelementptr inbounds nuw %struct.ml_dsa_params_st, ptr %15, i32 0, i32 6
  %17 = load i64, ptr %16, align 8, !tbaa !34
  %18 = call i32 @vector_alloc(ptr noundef %12, i64 noundef %17)
  store i32 %18, ptr %2, align 4
  br label %19

19:                                               ; preds = %10, %9
  %20 = load i32, ptr %2, align 4
  ret i32 %20
}

; Function Attrs: inlinehint nounwind uwtable
define internal i32 @vector_alloc(ptr noundef %0, i64 noundef %1) #3 {
  %3 = alloca i32, align 4
  %4 = alloca ptr, align 8
  %5 = alloca i64, align 8
  store ptr %0, ptr %4, align 8, !tbaa !35
  store i64 %1, ptr %5, align 8, !tbaa !23
  %6 = load i64, ptr %5, align 8, !tbaa !23
  %7 = mul i64 %6, 1024
  %8 = call noalias ptr @CRYPTO_malloc(i64 noundef %7, ptr noundef @.str.3, i32 noundef 36)
  %9 = load ptr, ptr %4, align 8, !tbaa !35
  %10 = getelementptr inbounds nuw %struct.vector_st, ptr %9, i32 0, i32 0
  store ptr %8, ptr %10, align 8, !tbaa !37
  %11 = load ptr, ptr %4, align 8, !tbaa !35
  %12 = getelementptr inbounds nuw %struct.vector_st, ptr %11, i32 0, i32 0
  %13 = load ptr, ptr %12, align 8, !tbaa !37
  %14 = icmp eq ptr %13, null
  br i1 %14, label %15, label %16

15:                                               ; preds = %2
  store i32 0, ptr %3, align 4
  br label %20

16:                                               ; preds = %2
  %17 = load i64, ptr %5, align 8, !tbaa !23
  %18 = load ptr, ptr %4, align 8, !tbaa !35
  %19 = getelementptr inbounds nuw %struct.vector_st, ptr %18, i32 0, i32 1
  store i64 %17, ptr %19, align 8, !tbaa !38
  store i32 1, ptr %3, align 4
  br label %20

20:                                               ; preds = %16, %15
  %21 = load i32, ptr %3, align 4
  ret i32 %21
}

; Function Attrs: nounwind uwtable
define i32 @ossl_ml_dsa_key_public_from_private(ptr noundef %0) #0 {
  %2 = alloca i32, align 4
  %3 = alloca ptr, align 8
  %4 = alloca i32, align 4
  %5 = alloca %struct.vector_st, align 8
  %6 = alloca ptr, align 8
  %7 = alloca i32, align 4
  store ptr %0, ptr %3, align 8, !tbaa !3
  call void @llvm.lifetime.start.p0(i64 4, ptr %4) #7
  store i32 0, ptr %4, align 4, !tbaa !21
  call void @llvm.lifetime.start.p0(i64 16, ptr %5) #7
  call void @llvm.lifetime.start.p0(i64 8, ptr %6) #7
  store ptr null, ptr %6, align 8, !tbaa !44
  %8 = load ptr, ptr %3, align 8, !tbaa !3
  %9 = getelementptr inbounds nuw %struct.ml_dsa_key_st, ptr %8, i32 0, i32 1
  %10 = load ptr, ptr %9, align 8, !tbaa !8
  %11 = getelementptr inbounds nuw %struct.ml_dsa_params_st, ptr %10, i32 0, i32 6
  %12 = load i64, ptr %11, align 8, !tbaa !34
  %13 = call i32 @vector_alloc(ptr noundef %5, i64 noundef %12)
  %14 = icmp ne i32 %13, 0
  br i1 %14, label %16, label %15

15:                                               ; preds = %1
  store i32 0, ptr %2, align 4
  store i32 1, ptr %7, align 4
  br label %62

16:                                               ; preds = %1
  %17 = call ptr @EVP_MD_CTX_new()
  store ptr %17, ptr %6, align 8, !tbaa !44
  %18 = icmp ne ptr %17, null
  br i1 %18, label %19, label %57

19:                                               ; preds = %16
  %20 = load ptr, ptr %3, align 8, !tbaa !3
  %21 = call i32 @ossl_ml_dsa_key_pub_alloc(ptr noundef %20)
  %22 = icmp ne i32 %21, 0
  br i1 %22, label %23, label %57

23:                                               ; preds = %19
  %24 = load ptr, ptr %3, align 8, !tbaa !3
  %25 = load ptr, ptr %6, align 8, !tbaa !44
  %26 = load ptr, ptr %3, align 8, !tbaa !3
  %27 = getelementptr inbounds nuw %struct.ml_dsa_key_st, ptr %26, i32 0, i32 12
  %28 = call i32 @public_from_private(ptr noundef %24, ptr noundef %25, ptr noundef %27, ptr noundef %5)
  %29 = icmp ne i32 %28, 0
  br i1 %29, label %30, label %57

30:                                               ; preds = %23
  %31 = load ptr, ptr %3, align 8, !tbaa !3
  %32 = getelementptr inbounds nuw %struct.ml_dsa_key_st, ptr %31, i32 0, i32 13
  %33 = call i32 @vector_equal(ptr noundef %5, ptr noundef %32)
  %34 = icmp ne i32 %33, 0
  br i1 %34, label %35, label %57

35:                                               ; preds = %30
  %36 = load ptr, ptr %3, align 8, !tbaa !3
  %37 = call i32 @ossl_ml_dsa_pk_encode(ptr noundef %36)
  %38 = icmp ne i32 %37, 0
  br i1 %38, label %39, label %57

39:                                               ; preds = %35
  %40 = load ptr, ptr %6, align 8, !tbaa !44
  %41 = load ptr, ptr %3, align 8, !tbaa !3
  %42 = getelementptr inbounds nuw %struct.ml_dsa_key_st, ptr %41, i32 0, i32 3
  %43 = load ptr, ptr %42, align 8, !tbaa !32
  %44 = load ptr, ptr %3, align 8, !tbaa !3
  %45 = getelementptr inbounds nuw %struct.ml_dsa_key_st, ptr %44, i32 0, i32 7
  %46 = load ptr, ptr %45, align 8, !tbaa !24
  %47 = load ptr, ptr %3, align 8, !tbaa !3
  %48 = getelementptr inbounds nuw %struct.ml_dsa_key_st, ptr %47, i32 0, i32 1
  %49 = load ptr, ptr %48, align 8, !tbaa !8
  %50 = getelementptr inbounds nuw %struct.ml_dsa_params_st, ptr %49, i32 0, i32 13
  %51 = load i64, ptr %50, align 8, !tbaa !43
  %52 = load ptr, ptr %3, align 8, !tbaa !3
  %53 = getelementptr inbounds nuw %struct.ml_dsa_key_st, ptr %52, i32 0, i32 5
  %54 = getelementptr inbounds [64 x i8], ptr %53, i64 0, i64 0
  %55 = call i32 @shake_xof(ptr noundef %40, ptr noundef %43, ptr noundef %46, i64 noundef %51, ptr noundef %54, i64 noundef 64)
  %56 = icmp ne i32 %55, 0
  br label %57

57:                                               ; preds = %39, %35, %30, %23, %19, %16
  %58 = phi i1 [ false, %35 ], [ false, %30 ], [ false, %23 ], [ false, %19 ], [ false, %16 ], [ %56, %39 ]
  %59 = zext i1 %58 to i32
  store i32 %59, ptr %4, align 4, !tbaa !21
  call void @vector_free(ptr noundef %5)
  %60 = load ptr, ptr %6, align 8, !tbaa !44
  call void @EVP_MD_CTX_free(ptr noundef %60)
  %61 = load i32, ptr %4, align 4, !tbaa !21
  store i32 %61, ptr %2, align 4
  store i32 1, ptr %7, align 4
  br label %62

62:                                               ; preds = %57, %15
  call void @llvm.lifetime.end.p0(i64 8, ptr %6) #7
  call void @llvm.lifetime.end.p0(i64 16, ptr %5) #7
  call void @llvm.lifetime.end.p0(i64 4, ptr %4) #7
  %63 = load i32, ptr %2, align 4
  ret i32 %63
}