; Function Attrs: nounwind uwtable
define range(i32 0, 2) i32 @ossl_ml_dsa_key_public_from_private(ptr noundef %0) local_unnamed_addr #1 {
  %2 = alloca %struct.vector_st, align 8
  call void @llvm.lifetime.start.p0(i64 16, ptr nonnull %2) #9
  %3 = getelementptr inbounds nuw i8, ptr %0, i64 8
  %4 = load ptr, ptr %3, align 8, !tbaa !3
  %5 = getelementptr inbounds nuw i8, ptr %4, i64 32
  %6 = load i64, ptr %5, align 8, !tbaa !27
  %7 = shl i64 %6, 10
  %8 = tail call noalias ptr @CRYPTO_malloc(i64 noundef %7, ptr noundef nonnull @.str.3, i32 noundef 36) #9
  store ptr %8, ptr %2, align 8, !tbaa !28
  %9 = icmp eq ptr %8, null
  br i1 %9, label %vector_alloc.exit.thread, label %10

10:                                               ; preds = %1
  %11 = getelementptr inbounds nuw i8, ptr %2, i64 8
  store i64 %6, ptr %11, align 8, !tbaa !29
  %12 = tail call ptr @EVP_MD_CTX_new() #9
  %.not15 = icmp eq ptr %12, null
  br i1 %.not15, label %shake_xof.exit, label %13

13:                                               ; preds = %10
  %14 = getelementptr inbounds nuw i8, ptr %0, i64 192
  %15 = load ptr, ptr %14, align 8, !tbaa !26
  %.not.i = icmp eq ptr %15, null
  br i1 %.not.i, label %16, label %shake_xof.exit

16:                                               ; preds = %13
  %17 = load ptr, ptr %3, align 8, !tbaa !3
  %18 = getelementptr inbounds nuw i8, ptr %17, i64 32
  %19 = load i64, ptr %18, align 8, !tbaa !27
  %20 = shl i64 %19, 10
  %21 = tail call noalias ptr @CRYPTO_malloc(i64 noundef %20, ptr noundef nonnull @.str.3, i32 noundef 36) #9
  store ptr %21, ptr %14, align 8, !tbaa !28
  %22 = icmp eq ptr %21, null
  br i1 %22, label %shake_xof.exit, label %23

23:                                               ; preds = %16
  %24 = getelementptr inbounds nuw i8, ptr %0, i64 200
  store i64 %19, ptr %24, align 8, !tbaa !29
  %25 = call fastcc i32 @public_from_private(ptr noundef nonnull %0, ptr noundef %12, ptr noundef nonnull %14, ptr noundef nonnull %2)
  %.not17 = icmp eq i32 %25, 0
  br i1 %.not17, label %shake_xof.exit, label %26

26:                                               ; preds = %23
  %27 = getelementptr inbounds nuw i8, ptr %0, i64 208
  %28 = getelementptr inbounds nuw i8, ptr %0, i64 216
  %29 = load i64, ptr %28, align 8, !tbaa !29
  %.not.i22 = icmp eq i64 %6, %29
  br i1 %.not.i22, label %.preheader.i, label %shake_xof.exit

.preheader.i:                                     ; preds = %26
  %.not5.i = icmp eq i64 %6, 0
  br i1 %.not5.i, label %vector_equal.exit, label %.lr.ph.i

30:                                               ; preds = %.lr.ph.i
  %31 = add nuw i64 %.02.i, 1
  %exitcond.not.i = icmp eq i64 %31, %6
  br i1 %exitcond.not.i, label %vector_equal.exit, label %.lr.ph.i, !llvm.loop !34

.lr.ph.i:                                         ; preds = %.preheader.i, %30
  %.02.i = phi i64 [ %31, %30 ], [ 0, %.preheader.i ]
  %32 = getelementptr inbounds nuw %struct.poly_st, ptr %8, i64 %.02.i
  %33 = load ptr, ptr %27, align 8, !tbaa !28
  %34 = getelementptr inbounds nuw %struct.poly_st, ptr %33, i64 %.02.i
  %35 = tail call i32 @CRYPTO_memcmp(ptr noundef nonnull %32, ptr noundef %34, i64 noundef 1024) #9
  %.not1.i = icmp eq i32 %35, 0
  br i1 %.not1.i, label %30, label %shake_xof.exit

vector_equal.exit:                                ; preds = %30, %.preheader.i
  %36 = tail call i32 @ossl_ml_dsa_pk_encode(ptr noundef nonnull %0) #9
  %.not19 = icmp eq i32 %36, 0
  br i1 %.not19, label %shake_xof.exit, label %37

37:                                               ; preds = %vector_equal.exit
  %38 = getelementptr inbounds nuw i8, ptr %0, i64 24
  %39 = load ptr, ptr %38, align 8, !tbaa !25
  %40 = getelementptr inbounds nuw i8, ptr %0, i64 160
  %41 = load ptr, ptr %40, align 8, !tbaa !19
  %42 = load ptr, ptr %3, align 8, !tbaa !3
  %43 = getelementptr inbounds nuw i8, ptr %42, i64 72
  %44 = load i64, ptr %43, align 8, !tbaa !33
  %45 = getelementptr inbounds nuw i8, ptr %0, i64 64
  %46 = tail call i32 @EVP_DigestInit_ex2(ptr noundef nonnull %12, ptr noundef %39, ptr noundef null) #9
  %47 = icmp eq i32 %46, 1
  br i1 %47, label %48, label %shake_xof.exit

48:                                               ; preds = %37
  %49 = tail call i32 @EVP_DigestUpdate(ptr noundef nonnull %12, ptr noundef %41, i64 noundef %44) #9
  %50 = icmp eq i32 %49, 1
  br i1 %50, label %51, label %shake_xof.exit

51:                                               ; preds = %48
  %52 = tail call i32 @EVP_DigestSqueeze(ptr noundef nonnull %12, ptr noundef nonnull %45, i64 noundef 64) #9
  %53 = icmp eq i32 %52, 1
  %54 = zext i1 %53 to i32
  br label %shake_xof.exit

shake_xof.exit:                                   ; preds = %.lr.ph.i, %26, %16, %13, %51, %48, %37, %vector_equal.exit, %23, %10
  %55 = phi i32 [ 0, %vector_equal.exit ], [ 0, %23 ], [ 0, %10 ], [ 0, %48 ], [ 0, %37 ], [ %54, %51 ], [ 0, %13 ], [ 0, %16 ], [ 0, %26 ], [ 0, %.lr.ph.i ]
  tail call void @CRYPTO_free(ptr noundef nonnull %8, ptr noundef nonnull @.str.3, i32 noundef 46) #9
  tail call void @EVP_MD_CTX_free(ptr noundef %12) #9
  br label %vector_alloc.exit.thread

vector_alloc.exit.thread:                         ; preds = %1, %shake_xof.exit
  %.0 = phi i32 [ %55, %shake_xof.exit ], [ 0, %1 ]
  call void @llvm.lifetime.end.p0(i64 16, ptr nonnull %2) #9
  ret i32 %.0
}